; Function Attrs: mustprogress nofree nounwind willreturn memory(read) uwtable
define internal fastcc i32 @_ZN12_GLOBAL__N_114getExprLocImplIN5clang18CUDAKernelCallExprEEENS1_14SourceLocationEPKNS1_4ExprEMS4_KFS3_vE(ptr nocapture noundef readonly %0) unnamed_addr #5 {
  %2 = load i8, ptr %0, align 8
  %.not.i = icmp eq i8 %2, 91
  br i1 %.not.i, label %3, label %5

3:                                                ; preds = %1
  %4 = getelementptr inbounds nuw i8, ptr %0, i64 24
  %.sroa.0.0.copyload.i.i.i = load i32, ptr %4, align 4
  br label %_ZNK5clang8CallExpr11getBeginLocEv.exit

5:                                                ; preds = %1
  %6 = load i32, ptr %0, align 8
  %7 = lshr i32 %6, 24
  %8 = zext nneg i32 %7 to i64
  %9 = getelementptr inbounds i8, ptr %0, i64 %8
  %10 = load ptr, ptr %9, align 8
  %11 = tail call i32 @_ZNK5clang4Stmt11getBeginLocEv(ptr noundef nonnull align 8 dereferenceable(8) %10) #29
  %12 = icmp eq i32 %11, 0
  br i1 %12, label %13, label %_ZNK5clang8CallExpr11getBeginLocEv.exit

13:                                               ; preds = %5
  %14 = getelementptr inbounds nuw i8, ptr %0, i64 16
  %15 = load i32, ptr %14, align 8
  %.not3.i = icmp eq i32 %15, 0
  br i1 %.not3.i, label %_ZNK5clang8CallExpr11getBeginLocEv.exit, label %16

16:                                               ; preds = %13
  %17 = getelementptr inbounds i8, ptr %9, i64 8
  %18 = lshr i32 %6, 18
  %19 = and i32 %18, 1
  %20 = zext nneg i32 %19 to i64
  %21 = getelementptr inbounds ptr, ptr %17, i64 %20
  %22 = load ptr, ptr %21, align 8
  %.not4.i = icmp eq ptr %22, null
  br i1 %.not4.i, label %_ZNK5clang8CallExpr11getBeginLocEv.exit, label %23

23:                                               ; preds = %16
  %24 = tail call i32 @_ZNK5clang4Stmt11getBeginLocEv(ptr noundef nonnull align 8 dereferenceable(8) %22) #29
  br label %_ZNK5clang8CallExpr11getBeginLocEv.exit

_ZNK5clang8CallExpr11getBeginLocEv.exit:          ; preds = %3, %5, %13, %16, %23
  %.sroa.0.0.i = phi i32 [ 0, %13 ], [ 0, %16 ], [ %24, %23 ], [ %11, %5 ], [ %.sroa.0.0.copyload.i.i.i, %3 ]
  ret i32 %.sroa.0.0.i
}